target datalayout = "e-m:e-p270:32:32-p271:32:32-p272:64:64-i64:64-i128:128-f80:128-n8:16:32:64-S128"
target triple = "x86_64-pc-linux-gnu"

%struct.mi_stats_s = type { i32, %struct.mi_stat_count_s, %struct.mi_stat_count_s, %struct.mi_stat_count_s, %struct.mi_stat_count_s, %struct.mi_stat_count_s, %struct.mi_stat_count_s, %struct.mi_stat_count_s, %struct.mi_stat_count_s, %struct.mi_stat_count_s, %struct.mi_stat_count_s, %struct.mi_stat_count_s, %struct.mi_stat_counter_s, %struct.mi_stat_counter_s, %struct.mi_stat_counter_s, %struct.mi_stat_counter_s, %struct.mi_stat_counter_s, %struct.mi_stat_counter_s, %struct.mi_stat_counter_s, %struct.mi_stat_counter_s, %struct.mi_stat_counter_s, %struct.mi_stat_counter_s, %struct.mi_stat_counter_s, %struct.mi_stat_counter_s, %struct.mi_stat_counter_s, %struct.mi_stat_count_s, %struct.mi_stat_count_s, %struct.mi_stat_count_s, %struct.mi_stat_count_s, %struct.mi_stat_counter_s, %struct.mi_stat_counter_s, %struct.mi_stat_counter_s, %struct.mi_stat_counter_s, [4 x %struct.mi_stat_count_s], [4 x %struct.mi_stat_counter_s], [74 x %struct.mi_stat_count_s], [74 x %struct.mi_stat_count_s] }
%struct.mi_stat_count_s = type { i64, i64, i64 }
%struct.mi_stat_counter_s = type { i64 }
%struct.mi_heap_s = type { ptr, %"struct.std::atomic.4", i64, i32, i64, [2 x i64], %struct.mi_random_cxt_s, i64, i64, i64, i64, i64, ptr, i8, i8, [129 x ptr], [75 x %struct.mi_page_queue_s] }
%"struct.std::atomic.4" = type { %"struct.std::__atomic_base.5" }
%"struct.std::__atomic_base.5" = type { ptr }
%struct.mi_random_cxt_s = type { [16 x i32], [16 x i32], i32, i8 }
%struct.mi_page_queue_s = type { ptr, ptr, i64 }
%struct.mi_tld_s = type { i64, i8, ptr, ptr, %struct.mi_segments_tld_s, %struct.mi_stats_s }
%struct.mi_segments_tld_s = type { [36 x %struct.mi_span_queue_s], i64, i64, i64, i64, i64, ptr, ptr }
%struct.mi_span_queue_s = type { ptr, ptr, i64 }
%struct.mi_memid_s = type { %union.anon, i8, i8, i8, i32 }
%union.anon = type { %struct.mi_memid_os_info }
%struct.mi_memid_os_info = type { ptr, i64 }
%"struct.std::atomic.8" = type { %"struct.std::__atomic_base.9" }
%"struct.std::__atomic_base.9" = type { ptr }
%struct.mi_thread_data_s = type { %struct.mi_heap_s, %struct.mi_tld_s, %struct.mi_memid_s }

@_ZL8td_cache = internal global [32 x %"struct.std::atomic.8"] zeroinitializer, align 16

; Function Attrs: mustprogress nounwind uwtable
define linkonce_odr noundef i32 @_ZStanSt12memory_orderSt23__memory_order_modifier(i32 noundef %0, i32 noundef %1) #5 comdat {
  %3 = alloca i32, align 4
  %4 = alloca i32, align 4
  store i32 %0, ptr %3, align 4, !tbaa !32
  store i32 %1, ptr %4, align 4, !tbaa !428
  %5 = load i32, ptr %3, align 4, !tbaa !32
  %6 = load i32, ptr %4, align 4, !tbaa !428
  %7 = and i32 %5, %6
  ret i32 %7
}

; Function Attrs: alwaysinline mustprogress nounwind uwtable
define linkonce_odr hidden noundef ptr @_ZNSt13__atomic_baseIP16mi_thread_data_sE8exchangeES1_St12memory_order(ptr noundef nonnull align 8 dereferenceable(8) %0, ptr noundef %1, i32 noundef %2) #17 comdat align 2 {
  %4 = alloca ptr, align 8
  %5 = alloca ptr, align 8
  %6 = alloca i32, align 4
  %7 = alloca ptr, align 8
  %8 = alloca ptr, align 8
  store ptr %0, ptr %4, align 8, !tbaa !442
  store ptr %1, ptr %5, align 8, !tbaa !241
  store i32 %2, ptr %6, align 4, !tbaa !32
  %9 = load ptr, ptr %4, align 8
  %10 = getelementptr inbounds nuw %"struct.std::__atomic_base.9", ptr %9, i32 0, i32 0
  %11 = load i32, ptr %6, align 4, !tbaa !32
  %12 = load ptr, ptr %5, align 8, !tbaa !241
  store ptr %12, ptr %7, align 8, !tbaa !241
  switch i32 %11, label %13 [
    i32 1, label %16
    i32 2, label %16
    i32 3, label %19
    i32 4, label %22
    i32 5, label %25
  ]

13:                                               ; preds = %3
  %14 = load i64, ptr %7, align 8
  %15 = atomicrmw xchg ptr %10, i64 %14 monotonic, align 8
  store i64 %15, ptr %8, align 8
  br label %28

16:                                               ; preds = %3, %3
  %17 = load i64, ptr %7, align 8
  %18 = atomicrmw xchg ptr %10, i64 %17 acquire, align 8
  store i64 %18, ptr %8, align 8
  br label %28

19:                                               ; preds = %3
  %20 = load i64, ptr %7, align 8
  %21 = atomicrmw xchg ptr %10, i64 %20 release, align 8
  store i64 %21, ptr %8, align 8
  br label %28

22:                                               ; preds = %3
  %23 = load i64, ptr %7, align 8
  %24 = atomicrmw xchg ptr %10, i64 %23 acq_rel, align 8
  store i64 %24, ptr %8, align 8
  br label %28

25:                                               ; preds = %3
  %26 = load i64, ptr %7, align 8
  %27 = atomicrmw xchg ptr %10, i64 %26 seq_cst, align 8
  store i64 %27, ptr %8, align 8
  br label %28

28:                                               ; preds = %25, %22, %19, %16, %13
  %29 = load ptr, ptr %8, align 8, !tbaa !241
  ret ptr %29
}

; Function Attrs: alwaysinline mustprogress nounwind uwtable
define linkonce_odr hidden noundef ptr @_ZNKSt13__atomic_baseIP16mi_thread_data_sE4loadESt12memory_order(ptr noundef nonnull align 8 dereferenceable(8) %0, i32 noundef %1) #17 comdat align 2 {
  %3 = alloca ptr, align 8
  %4 = alloca i32, align 4
  %5 = alloca i32, align 4
  %6 = alloca ptr, align 8
  store ptr %0, ptr %3, align 8, !tbaa !442
  store i32 %1, ptr %4, align 4, !tbaa !32
  %7 = load ptr, ptr %3, align 8
  call void @llvm.lifetime.start.p0(i64 4, ptr %5) #19
  %8 = load i32, ptr %4, align 4, !tbaa !32
  %9 = call noundef i32 @_ZStanSt12memory_orderSt23__memory_order_modifier(i32 noundef %8, i32 noundef 65535)
  store i32 %9, ptr %5, align 4, !tbaa !32
  br label %10

10:                                               ; preds = %2
  br label %11

11:                                               ; preds = %10
  br label %12

12:                                               ; preds = %11
  br label %13

13:                                               ; preds = %12
  br label %14

14:                                               ; preds = %13
  br label %15

15:                                               ; preds = %14
  %16 = getelementptr inbounds nuw %"struct.std::__atomic_base.9", ptr %7, i32 0, i32 0
  %17 = load i32, ptr %4, align 4, !tbaa !32
  switch i32 %17, label %18 [
    i32 1, label %20
    i32 2, label %20
    i32 5, label %22
  ]

18:                                               ; preds = %15
  %19 = load atomic i64, ptr %16 monotonic, align 8
  store i64 %19, ptr %6, align 8
  br label %24

20:                                               ; preds = %15, %15
  %21 = load atomic i64, ptr %16 acquire, align 8
  store i64 %21, ptr %6, align 8
  br label %24

22:                                               ; preds = %15
  %23 = load atomic i64, ptr %16 seq_cst, align 8
  store i64 %23, ptr %6, align 8
  br label %24

24:                                               ; preds = %22, %20, %18
  %25 = load ptr, ptr %6, align 8, !tbaa !241
  call void @llvm.lifetime.end.p0(i64 4, ptr %5) #19
  ret ptr %25
}

; Function Attrs: mustprogress nounwind uwtable
define linkonce_odr hidden noundef ptr @_ZNSt6atomicIP16mi_thread_data_sE8exchangeES1_St12memory_order(ptr noundef nonnull align 8 dereferenceable(8) %0, ptr noundef %1, i32 noundef %2) #5 comdat align 2 {
  %4 = alloca ptr, align 8
  %5 = alloca ptr, align 8
  %6 = alloca i32, align 4
  store ptr %0, ptr %4, align 8, !tbaa !244
  store ptr %1, ptr %5, align 8, !tbaa !241
  store i32 %2, ptr %6, align 4, !tbaa !32
  %7 = load ptr, ptr %4, align 8
  %8 = getelementptr inbounds nuw %"struct.std::atomic.8", ptr %7, i32 0, i32 0
  %9 = load ptr, ptr %5, align 8, !tbaa !241
  %10 = load i32, ptr %6, align 4, !tbaa !32
  %11 = call noundef ptr @_ZNSt13__atomic_baseIP16mi_thread_data_sE8exchangeES1_St12memory_order(ptr noundef nonnull align 8 dereferenceable(8) %8, ptr noundef %9, i32 noundef %10) #19
  ret ptr %11
}

; Function Attrs: mustprogress nounwind uwtable
define linkonce_odr hidden noundef ptr @_ZNKSt6atomicIP16mi_thread_data_sE4loadESt12memory_order(ptr noundef nonnull align 8 dereferenceable(8) %0, i32 noundef %1) #5 comdat align 2 {
  %3 = alloca ptr, align 8
  %4 = alloca i32, align 4
  store ptr %0, ptr %3, align 8, !tbaa !244
  store i32 %1, ptr %4, align 4, !tbaa !32
  %5 = load ptr, ptr %3, align 8
  %6 = getelementptr inbounds nuw %"struct.std::atomic.8", ptr %5, i32 0, i32 0
  %7 = load i32, ptr %4, align 4, !tbaa !32
  %8 = call noundef ptr @_ZNKSt13__atomic_baseIP16mi_thread_data_sE4loadESt12memory_order(ptr noundef nonnull align 8 dereferenceable(8) %6, i32 noundef %7) #19
  ret ptr %8
}

; Function Attrs: mustprogress uwtable
define hidden void @_Z11_mi_os_freePvm10mi_memid_s(ptr noundef %0, i64 noundef %1, ptr noundef byval(%struct.mi_memid_s) align 8 %2) #0 {
  %4 = alloca ptr, align 8
  %5 = alloca i64, align 8
  %6 = alloca %struct.mi_memid_s, align 8
  store ptr %0, ptr %4, align 8, !tbaa !8
  store i64 %1, ptr %5, align 8, !tbaa !18
  %7 = load ptr, ptr %4, align 8, !tbaa !8
  %8 = load i64, ptr %5, align 8, !tbaa !18
  call void @llvm.memcpy.p0.p0.i64(ptr align 8 %6, ptr align 8 %2, i64 24, i1 false), !tbaa.struct !74
  call void @_Z14_mi_os_free_exPvmb10mi_memid_s(ptr noundef %7, i64 noundef %8, i1 noundef zeroext true, ptr noundef byval(%struct.mi_memid_s) align 8 %6)
  ret void
}

; Function Attrs: inlinehint mustprogress nounwind uwtable
define linkonce_odr hidden noundef ptr @_ZSt24atomic_exchange_explicitIP16mi_thread_data_sET_PSt6atomicIS2_ENSt15__type_identityIS2_E4typeESt12memory_order(ptr noundef %0, ptr noundef %1, i32 noundef %2) #3 comdat {
  %4 = alloca ptr, align 8
  %5 = alloca ptr, align 8
  %6 = alloca i32, align 4
  store ptr %0, ptr %4, align 8, !tbaa !244
  store ptr %1, ptr %5, align 8, !tbaa !241
  store i32 %2, ptr %6, align 4, !tbaa !32
  %7 = load ptr, ptr %4, align 8, !tbaa !244
  %8 = load ptr, ptr %5, align 8, !tbaa !241
  %9 = load i32, ptr %6, align 4, !tbaa !32
  %10 = call noundef ptr @_ZNSt6atomicIP16mi_thread_data_sE8exchangeES1_St12memory_order(ptr noundef nonnull align 8 dereferenceable(8) %7, ptr noundef %8, i32 noundef %9) #19
  ret ptr %10
}

; Function Attrs: inlinehint mustprogress nounwind uwtable
define linkonce_odr hidden noundef ptr @_ZSt20atomic_load_explicitIP16mi_thread_data_sET_PKSt6atomicIS2_ESt12memory_order(ptr noundef %0, i32 noundef %1) #3 comdat {
  %3 = alloca ptr, align 8
  %4 = alloca i32, align 4
  store ptr %0, ptr %3, align 8, !tbaa !244
  store i32 %1, ptr %4, align 4, !tbaa !32
  %5 = load ptr, ptr %3, align 8, !tbaa !244
  %6 = load i32, ptr %4, align 4, !tbaa !32
  %7 = call noundef ptr @_ZNKSt6atomicIP16mi_thread_data_sE4loadESt12memory_order(ptr noundef nonnull align 8 dereferenceable(8) %5, i32 noundef %6) #19
  ret ptr %7
}

; Function Attrs: mustprogress uwtable
define hidden void @_Z23_mi_thread_data_collectv() #0 {
  %1 = alloca i32, align 4
  %2 = alloca ptr, align 8
  %3 = alloca %struct.mi_memid_s, align 8
  call void @llvm.lifetime.start.p0(i64 4, ptr %1) #19
  store i32 0, ptr %1, align 4, !tbaa !58
  br label %4

4:                                                ; preds = %28, %0
  %5 = load i32, ptr %1, align 4, !tbaa !58
  %6 = icmp slt i32 %5, 32
  br i1 %6, label %8, label %7

7:                                                ; preds = %4
  call void @llvm.lifetime.end.p0(i64 4, ptr %1) #19
  br label %31

8:                                                ; preds = %4
  call void @llvm.lifetime.start.p0(i64 8, ptr %2) #19
  %9 = load i32, ptr %1, align 4, !tbaa !58
  %10 = sext i32 %9 to i64
  %11 = getelementptr inbounds [32 x %"struct.std::atomic.8"], ptr @_ZL8td_cache, i64 0, i64 %10
  %12 = call noundef ptr @_ZSt20atomic_load_explicitIP16mi_thread_data_sET_PKSt6atomicIS2_ESt12memory_order(ptr noundef %11, i32 noundef 0) #19
  store ptr %12, ptr %2, align 8, !tbaa !241
  %13 = load ptr, ptr %2, align 8, !tbaa !241
  %14 = icmp ne ptr %13, null
  br i1 %14, label %15, label %27

15:                                               ; preds = %8
  %16 = load i32, ptr %1, align 4, !tbaa !58
  %17 = sext i32 %16 to i64
  %18 = getelementptr inbounds [32 x %"struct.std::atomic.8"], ptr @_ZL8td_cache, i64 0, i64 %17
  %19 = call noundef ptr @_ZSt24atomic_exchange_explicitIP16mi_thread_data_sET_PSt6atomicIS2_ENSt15__type_identityIS2_E4typeESt12memory_order(ptr noundef %18, ptr noundef null, i32 noundef 4) #19
  store ptr %19, ptr %2, align 8, !tbaa !241
  %20 = load ptr, ptr %2, align 8, !tbaa !241
  %21 = icmp ne ptr %20, null
  br i1 %21, label %22, label %26

22:                                               ; preds = %15
  %23 = load ptr, ptr %2, align 8, !tbaa !241
  %24 = load ptr, ptr %2, align 8, !tbaa !241
  %25 = getelementptr inbounds nuw %struct.mi_thread_data_s, ptr %24, i32 0, i32 2
  call void @llvm.memcpy.p0.p0.i64(ptr align 8 %3, ptr align 8 %25, i64 24, i1 false), !tbaa.struct !74
  call void @_Z11_mi_os_freePvm10mi_memid_s(ptr noundef %23, i64 noundef 8240, ptr noundef byval(%struct.mi_memid_s) align 8 %3)
  br label %26

26:                                               ; preds = %22, %15
  br label %27

27:                                               ; preds = %26, %8
  call void @llvm.lifetime.end.p0(i64 8, ptr %2) #19
  br label %28

28:                                               ; preds = %27
  %29 = load i32, ptr %1, align 4, !tbaa !58
  %30 = add nsw i32 %29, 1
  store i32 %30, ptr %1, align 4, !tbaa !58
  br label %4, !llvm.loop !243

31:                                               ; preds = %7
  ret void
}