; Function Attrs: mustprogress uwtable
define hidden void @_Z23_mi_thread_data_collectv() local_unnamed_addr #6 {
  br label %2

1:                                                ; preds = %9
  ret void

2:                                                ; preds = %0, %9
  %indvars.iv = phi i64 [ 0, %0 ], [ %indvars.iv.next, %9 ]
  %3 = getelementptr inbounds nuw [32 x %"struct.std::atomic.8"], ptr @_ZL8td_cache, i64 0, i64 %indvars.iv
  %4 = load atomic i64, ptr %3 monotonic, align 8
  %.not = icmp eq i64 %4, 0
  br i1 %.not, label %9, label %5

5:                                                ; preds = %2
  %6 = atomicrmw xchg ptr %3, i64 0 acq_rel, align 8
  %.not8 = icmp eq i64 %6, 0
  br i1 %.not8, label %9, label %7

7:                                                ; preds = %5
  %.0.i.i.i9 = inttoptr i64 %6 to ptr
  %8 = getelementptr inbounds nuw i8, ptr %.0.i.i.i9, i64 8216
  tail call void @_Z14_mi_os_free_exPvmb10mi_memid_s(ptr noundef nonnull %.0.i.i.i9, i64 poison, i1 noundef zeroext true, ptr noundef nonnull byval(%struct.mi_memid_s) align 8 %8)
  br label %9

9:                                                ; preds = %5, %7, %2
  %indvars.iv.next = add nuw nsw i64 %indvars.iv, 1
  %exitcond.not = icmp eq i64 %indvars.iv.next, 32
  br i1 %exitcond.not, label %1, label %2, !llvm.loop !210
}